; Function Attrs: mustprogress nofree norecurse nosync nounwind willreturn memory(none) uwtable
define noundef ptr @_ZN4LIEF5MachO9to_stringENS0_8DyldInfo23BIND_SUBOPCODE_THREADEDE(i8 noundef zeroext %0) local_unnamed_addr #5 {
  %.not.i.i.i.i.i.i.not = icmp eq i8 %0, 0
  %.not.i.i.i.i.i.i.i.i = icmp ugt i8 %0, 1
  %.idx.i.i.i.i.i.i.i.i.sroa.sel = select i1 %.not.i.i.i.i.i.i.i.i, ptr getelementptr inbounds nuw (i8, ptr @__const._ZN4LIEF5MachO9to_stringENS0_8DyldInfo23BIND_SUBOPCODE_THREADEDE.enums2str, i64 40), ptr getelementptr inbounds nuw (i8, ptr @__const._ZN4LIEF5MachO9to_stringENS0_8DyldInfo23BIND_SUBOPCODE_THREADEDE.enums2str, i64 24)
  %.0.i.i.i.i.i.i = select i1 %.not.i.i.i.i.i.i.not, ptr getelementptr inbounds nuw (i8, ptr @__const._ZN4LIEF5MachO9to_stringENS0_8DyldInfo23BIND_SUBOPCODE_THREADEDE.enums2str, i64 8), ptr %.idx.i.i.i.i.i.i.i.i.sroa.sel
  br i1 %.not.i.i.i.i.i.i.i.i, label %_ZNK6frozen3mapIN4LIEF5MachO8DyldInfo23BIND_SUBOPCODE_THREADEDEPKcLm2ESt4lessIS4_EE4findIS4_EEPKSt4pairIS4_S6_ERKT_.exit.thread, label %2

2:                                                ; preds = %1
  %3 = load i8, ptr %.0.i.i.i.i.i.i, align 8, !tbaa !295
  %.not12.i.i = icmp ult i8 %0, %3
  br i1 %.not12.i.i, label %_ZNK6frozen3mapIN4LIEF5MachO8DyldInfo23BIND_SUBOPCODE_THREADEDEPKcLm2ESt4lessIS4_EE4findIS4_EEPKSt4pairIS4_S6_ERKT_.exit.thread, label %4

4:                                                ; preds = %2
  %5 = getelementptr inbounds nuw i8, ptr %.0.i.i.i.i.i.i, i64 8
  %6 = load ptr, ptr %5, align 8, !tbaa !297
  br label %_ZNK6frozen3mapIN4LIEF5MachO8DyldInfo23BIND_SUBOPCODE_THREADEDEPKcLm2ESt4lessIS4_EE4findIS4_EEPKSt4pairIS4_S6_ERKT_.exit.thread

_ZNK6frozen3mapIN4LIEF5MachO8DyldInfo23BIND_SUBOPCODE_THREADEDEPKcLm2ESt4lessIS4_EE4findIS4_EEPKSt4pairIS4_S6_ERKT_.exit.thread: ; preds = %2, %1, %4
  %7 = phi ptr [ %6, %4 ], [ @.str.102, %1 ], [ @.str.102, %2 ]
  ret ptr %7
}